target datalayout = "e-m:e-p270:32:32-p271:32:32-p272:64:64-i64:64-i128:128-f80:128-n8:16:32:64-S128"
target triple = "x86_64-unknown-linux-gnu"

%struct.QTailQLink = type { ptr, ptr }
%struct.MSGUID = type { i32, i16, i16, [8 x i8] }
%struct.QemuUUID = type { %union.anon }
%union.anon = type { %struct.anon }
%struct.anon = type { i32, i16, i16, i8, i8, [6 x i8] }
%struct.CoMutex = type { i32, ptr, %struct.anon.0, %struct.anon.0, i32, i32, ptr }
%struct.anon.0 = type { ptr }
%struct.VHDXHeader = type { i32, i32, i64, %struct.MSGUID, %struct.MSGUID, %struct.MSGUID, i16, i16, i32, i64 }
%struct.BlockDriverState = type { i32, i8, i8, i8, i8, i8, ptr, ptr, ptr, %struct.anon.2, i8, [4096 x i8], [4096 x i8], [4096 x i8], [16 x i8], ptr, [4096 x i8], %struct.BlockLimits, i32, i32, i32, i32, [32 x i8], %union.anon.3, %union.anon.4, %union.anon.5, i32, [16 x %struct.anon.6], ptr, %struct.anon.7, ptr, ptr, %struct.anon.8, ptr, ptr, i32, ptr, i64, i64, %struct.QemuMutex, %struct.anon.9, %struct.Stat64, i32, i32, i32, i32, i32, i32, %struct.QemuMutex, %struct.anon.10, %struct.CoQueue, i8, i32, i8, %struct.CoMutex, ptr, ptr }
%struct.anon.2 = type { ptr }
%struct.BlockLimits = type { i32, i64, i32, i64, i32, i32, i32, i64, i32, i64, i64, i32, i8, i32, i32, i32, i32, i32, i32, i32 }
%union.anon.3 = type { %struct.QTailQLink }
%union.anon.4 = type { %struct.QTailQLink }
%union.anon.5 = type { %struct.QTailQLink }
%struct.anon.6 = type { ptr }
%struct.anon.7 = type { ptr }
%struct.anon.8 = type { ptr }
%struct.anon.9 = type { ptr }
%struct.Stat64 = type { i64 }
%struct.QemuMutex = type { %union.pthread_mutex_t, i8 }
%union.pthread_mutex_t = type { %struct.__pthread_mutex_s }
%struct.__pthread_mutex_s = type { i32, i32, i32, i32, i32, i16, i16, %struct.__pthread_internal_list }
%struct.__pthread_internal_list = type { ptr, ptr }
%struct.anon.10 = type { ptr }
%struct.CoQueue = type { %struct.anon.11 }
%struct.anon.11 = type { ptr, ptr }
%struct.BdrvChild = type { ptr, ptr, ptr, i32, ptr, i64, i64, i8, i8, %struct.anon.12, %struct.anon.13 }
%struct.anon.12 = type { ptr, ptr }
%struct.anon.13 = type { ptr, ptr }
%struct.GraphLockable = type {}

@.str.1 = private unnamed_addr constant [21 x i8] c"../qemu/block/vhdx.c\00", align 1
@.str.4 = private unnamed_addr constant [13 x i8] c"guid != NULL\00", align 1
@__PRETTY_FUNCTION__.vhdx_guid_generate = private unnamed_addr constant [34 x i8] c"void vhdx_guid_generate(MSGUID *)\00", align 1
@.str.44 = private unnamed_addr constant [32 x i8] c"!QLIST_NEXT(child, next_parent)\00", align 1
@__PRETTY_FUNCTION__.vhdx_create_new_headers = private unnamed_addr constant [64 x i8] c"int vhdx_create_new_headers(BlockBackend *, uint64_t, uint32_t)\00", align 1

; Function Attrs: nounwind sspstrong uwtable
define internal void @graph_lockable_auto_unlock(ptr noundef %x) #0 {
entry:
  %x.addr = alloca ptr, align 8
  store ptr %x, ptr %x.addr, align 8
  call void @bdrv_graph_co_rdunlock()
  ret void
}

; Function Attrs: nounwind sspstrong uwtable
define internal void @glib_autoptr_clear_GraphLockable(ptr noundef %_ptr) #0 {
entry:
  %_ptr.addr = alloca ptr, align 8
  store ptr %_ptr, ptr %_ptr.addr, align 8
  %0 = load ptr, ptr %_ptr.addr, align 8
  %tobool = icmp ne ptr %0, null
  br i1 %tobool, label %if.then, label %if.end

if.then:                                          ; preds = %entry
  %1 = load ptr, ptr %_ptr.addr, align 8
  call void @graph_lockable_auto_unlock(ptr noundef %1)
  br label %if.end

if.end:                                           ; preds = %if.then, %entry
  ret void
}

; Function Attrs: nounwind sspstrong uwtable
define internal void @glib_autoptr_cleanup_GraphLockable(ptr noundef %_ptr) #0 {
entry:
  %_ptr.addr = alloca ptr, align 8
  store ptr %_ptr, ptr %_ptr.addr, align 8
  %0 = load ptr, ptr %_ptr.addr, align 8
  %1 = load ptr, ptr %0, align 8
  call void @glib_autoptr_clear_GraphLockable(ptr noundef %1)
  ret void
}

; Function Attrs: nounwind sspstrong uwtable
define dso_local void @vhdx_guid_generate(ptr noundef %guid) #0 {
entry:
  %guid.addr = alloca ptr, align 8
  %uuid = alloca %struct.QemuUUID, align 4
  store ptr %guid, ptr %guid.addr, align 8
  %0 = load ptr, ptr %guid.addr, align 8
  %cmp = icmp ne ptr %0, null
  br i1 %cmp, label %if.then, label %if.else

if.then:                                          ; preds = %entry
  br label %if.end

if.else:                                          ; preds = %entry
  call void @__assert_fail(ptr noundef @.str.4, ptr noundef @.str.1, i32 noundef 224, ptr noundef @__PRETTY_FUNCTION__.vhdx_guid_generate) #10
  unreachable

if.end:                                           ; preds = %if.then
  call void @qemu_uuid_generate(ptr noundef %uuid)
  %1 = load ptr, ptr %guid.addr, align 8
  call void @llvm.memcpy.p0.p0.i64(ptr align 1 %1, ptr align 4 %uuid, i64 16, i1 false)
  ret void
}

; Function Attrs: nounwind sspstrong uwtable
define internal ptr @graph_lockable_auto_lock(ptr noundef %x) #0 {
entry:
  %x.addr = alloca ptr, align 8
  store ptr %x, ptr %x.addr, align 8
  call void @bdrv_graph_co_rdlock()
  %0 = load ptr, ptr %x.addr, align 8
  ret ptr %0
}

; Function Attrs: nounwind sspstrong uwtable
define internal i32 @vhdx_create_new_headers(ptr noundef %blk, i64 noundef %image_size, i32 noundef %log_size) #0 {
entry:
  %blk.addr = alloca ptr, align 8
  %image_size.addr = alloca i64, align 8
  %log_size.addr = alloca i32, align 4
  %bs = alloca ptr, align 8
  %child = alloca ptr, align 8
  %ret = alloca i32, align 4
  %hdr = alloca ptr, align 8
  %graph_lockable_auto7 = alloca ptr, align 8
  %.compoundliteral = alloca %struct.GraphLockable, align 1
  store ptr %blk, ptr %blk.addr, align 8
  store i64 %image_size, ptr %image_size.addr, align 8
  store i32 %log_size, ptr %log_size.addr, align 4
  %0 = load ptr, ptr %blk.addr, align 8
  %call = call ptr @blk_bs(ptr noundef %0)
  store ptr %call, ptr %bs, align 8
  store i32 0, ptr %ret, align 4
  store ptr null, ptr %hdr, align 8
  %call1 = call ptr @graph_lockable_auto_lock(ptr noundef %.compoundliteral)
  store ptr %call1, ptr %graph_lockable_auto7, align 8
  %call2 = call noalias ptr @g_malloc0_n(i64 noundef 1, i64 noundef 80) #14
  store ptr %call2, ptr %hdr, align 8
  %1 = load ptr, ptr %hdr, align 8
  %signature = getelementptr inbounds %struct.VHDXHeader, ptr %1, i32 0, i32 0
  store i32 1684104552, ptr %signature, align 1
  %call3 = call i32 @g_random_int()
  %conv = zext i32 %call3 to i64
  %2 = load ptr, ptr %hdr, align 8
  %sequence_number = getelementptr inbounds %struct.VHDXHeader, ptr %2, i32 0, i32 2
  store i64 %conv, ptr %sequence_number, align 1
  %3 = load ptr, ptr %hdr, align 8
  %log_version = getelementptr inbounds %struct.VHDXHeader, ptr %3, i32 0, i32 6
  store i16 0, ptr %log_version, align 1
  %4 = load ptr, ptr %hdr, align 8
  %version = getelementptr inbounds %struct.VHDXHeader, ptr %4, i32 0, i32 7
  store i16 1, ptr %version, align 1
  %5 = load i32, ptr %log_size.addr, align 4
  %6 = load ptr, ptr %hdr, align 8
  %log_length = getelementptr inbounds %struct.VHDXHeader, ptr %6, i32 0, i32 8
  store i32 %5, ptr %log_length, align 1
  %7 = load ptr, ptr %hdr, align 8
  %log_offset = getelementptr inbounds %struct.VHDXHeader, ptr %7, i32 0, i32 9
  store i64 1048576, ptr %log_offset, align 1
  %8 = load ptr, ptr %hdr, align 8
  %file_write_guid = getelementptr inbounds %struct.VHDXHeader, ptr %8, i32 0, i32 3
  call void @vhdx_guid_generate(ptr noundef %file_write_guid)
  %9 = load ptr, ptr %hdr, align 8
  %data_write_guid = getelementptr inbounds %struct.VHDXHeader, ptr %9, i32 0, i32 4
  call void @vhdx_guid_generate(ptr noundef %data_write_guid)
  %10 = load ptr, ptr %bs, align 8
  %parents = getelementptr inbounds %struct.BlockDriverState, ptr %10, i32 0, i32 32
  %lh_first = getelementptr inbounds %struct.anon.8, ptr %parents, i32 0, i32 0
  %11 = load ptr, ptr %lh_first, align 8
  store ptr %11, ptr %child, align 8
  %12 = load ptr, ptr %child, align 8
  %next_parent = getelementptr inbounds %struct.BdrvChild, ptr %12, i32 0, i32 10
  %le_next = getelementptr inbounds %struct.anon.13, ptr %next_parent, i32 0, i32 0
  %13 = load ptr, ptr %le_next, align 8
  %tobool = icmp ne ptr %13, null
  br i1 %tobool, label %if.else, label %if.then

if.then:                                          ; preds = %entry
  br label %if.end

if.else:                                          ; preds = %entry
  call void @__assert_fail(ptr noundef @.str.44, ptr noundef @.str.1, i32 noundef 1542, ptr noundef @__PRETTY_FUNCTION__.vhdx_create_new_headers) #10
  unreachable

if.end:                                           ; preds = %if.then
  %14 = load ptr, ptr %child, align 8
  %15 = load ptr, ptr %hdr, align 8
  %call4 = call i32 @vhdx_write_header(ptr noundef %14, ptr noundef %15, i64 noundef 65536, i1 noundef zeroext false)
  store i32 %call4, ptr %ret, align 4
  %16 = load i32, ptr %ret, align 4
  %cmp = icmp slt i32 %16, 0
  br i1 %cmp, label %if.then6, label %if.end7

if.then6:                                         ; preds = %if.end
  br label %exit

if.end7:                                          ; preds = %if.end
  %17 = load ptr, ptr %hdr, align 8
  %sequence_number8 = getelementptr inbounds %struct.VHDXHeader, ptr %17, i32 0, i32 2
  %18 = load i64, ptr %sequence_number8, align 1
  %inc = add i64 %18, 1
  store i64 %inc, ptr %sequence_number8, align 1
  %19 = load ptr, ptr %child, align 8
  %20 = load ptr, ptr %hdr, align 8
  %call9 = call i32 @vhdx_write_header(ptr noundef %19, ptr noundef %20, i64 noundef 131072, i1 noundef zeroext false)
  store i32 %call9, ptr %ret, align 4
  %21 = load i32, ptr %ret, align 4
  %cmp10 = icmp slt i32 %21, 0
  br i1 %cmp10, label %if.then12, label %if.end13

if.then12:                                        ; preds = %if.end7
  br label %exit

if.end13:                                         ; preds = %if.end7
  br label %exit

exit:                                             ; preds = %if.end13, %if.then12, %if.then6
  %22 = load ptr, ptr %hdr, align 8
  call void @g_free(ptr noundef %22)
  %23 = load i32, ptr %ret, align 4
  call void @glib_autoptr_cleanup_GraphLockable(ptr noundef %graph_lockable_auto7)
  ret i32 %23
}