; Function Attrs: nounwind sspstrong uwtable
define internal i32 @vhdx_create_new_headers(ptr noundef %blk, i64 %image_size, i32 noundef %log_size) #0 {
entry:
  %uuid.i15 = alloca %struct.QemuUUID, align 4
  %uuid.i = alloca %struct.QemuUUID, align 4
  %call = tail call ptr @blk_bs(ptr noundef %blk) #17
  tail call void @bdrv_graph_co_rdlock() #17
  %call2 = tail call noalias dereferenceable_or_null(80) ptr @g_malloc0_n(i64 noundef 1, i64 noundef 80) #19
  store i32 1684104552, ptr %call2, align 1
  %call3 = tail call i32 @g_random_int() #17
  %conv = zext i32 %call3 to i64
  %sequence_number = getelementptr inbounds nuw i8, ptr %call2, i64 8
  store i64 %conv, ptr %sequence_number, align 1
  %log_version = getelementptr inbounds nuw i8, ptr %call2, i64 64
  store i16 0, ptr %log_version, align 1
  %version = getelementptr inbounds nuw i8, ptr %call2, i64 66
  store i16 1, ptr %version, align 1
  %log_length = getelementptr inbounds nuw i8, ptr %call2, i64 68
  store i32 %log_size, ptr %log_length, align 1
  %log_offset = getelementptr inbounds nuw i8, ptr %call2, i64 72
  store i64 1048576, ptr %log_offset, align 1
  %file_write_guid = getelementptr inbounds nuw i8, ptr %call2, i64 16
  call void @llvm.lifetime.start.p0(i64 16, ptr nonnull %uuid.i)
  call void @qemu_uuid_generate(ptr noundef nonnull %uuid.i) #17
  call void @llvm.memcpy.p0.p0.i64(ptr noundef nonnull align 1 dereferenceable(16) %file_write_guid, ptr noundef nonnull align 4 dereferenceable(16) %uuid.i, i64 16, i1 false)
  call void @llvm.lifetime.end.p0(i64 16, ptr nonnull %uuid.i)
  %data_write_guid = getelementptr inbounds nuw i8, ptr %call2, i64 32
  call void @llvm.lifetime.start.p0(i64 16, ptr nonnull %uuid.i15)
  call void @qemu_uuid_generate(ptr noundef nonnull %uuid.i15) #17
  call void @llvm.memcpy.p0.p0.i64(ptr noundef nonnull align 1 dereferenceable(16) %data_write_guid, ptr noundef nonnull align 4 dereferenceable(16) %uuid.i15, i64 16, i1 false)
  call void @llvm.lifetime.end.p0(i64 16, ptr nonnull %uuid.i15)
  %parents = getelementptr inbounds nuw i8, ptr %call, i64 16848
  %0 = load ptr, ptr %parents, align 8
  %next_parent = getelementptr inbounds nuw i8, ptr %0, i64 80
  %1 = load ptr, ptr %next_parent, align 8
  %tobool.not = icmp eq ptr %1, null
  br i1 %tobool.not, label %if.end, label %if.else

if.else:                                          ; preds = %entry
  call void @__assert_fail(ptr noundef nonnull @.str.44, ptr noundef nonnull @.str.1, i32 noundef 1542, ptr noundef nonnull @__PRETTY_FUNCTION__.vhdx_create_new_headers) #16
  unreachable

if.end:                                           ; preds = %entry
  %call4 = call fastcc i32 @vhdx_write_header(ptr noundef nonnull %0, ptr noundef nonnull %call2, i64 noundef 65536, i1 noundef zeroext false)
  %cmp = icmp slt i32 %call4, 0
  br i1 %cmp, label %glib_autoptr_cleanup_GraphLockable.exit, label %if.end7

if.end7:                                          ; preds = %if.end
  %2 = load i64, ptr %sequence_number, align 1
  %inc = add i64 %2, 1
  store i64 %inc, ptr %sequence_number, align 1
  %call9 = call fastcc i32 @vhdx_write_header(ptr noundef nonnull %0, ptr noundef nonnull %call2, i64 noundef 131072, i1 noundef zeroext false)
  br label %glib_autoptr_cleanup_GraphLockable.exit

glib_autoptr_cleanup_GraphLockable.exit:          ; preds = %if.end7, %if.end
  %ret.0 = phi i32 [ %call4, %if.end ], [ %call9, %if.end7 ]
  call void @g_free(ptr noundef nonnull %call2) #17
  call void @bdrv_graph_co_rdunlock() #17
  ret i32 %ret.0
}